target datalayout = "e-m:e-p270:32:32-p271:32:32-p272:64:64-i64:64-i128:128-f80:128-n8:16:32:64-S128"
target triple = "x86_64-unknown-linux-gnu"

@.str = private unnamed_addr constant [9 x i8] c",offset=\00", align 1
@.str.1 = private unnamed_addr constant [25 x i8] c"../qemu/migration/file.c\00", align 1
@__func__.file_parse_offset = private unnamed_addr constant [18 x i8] c"file_parse_offset\00", align 1
@.str.2 = private unnamed_addr constant [27 x i8] c"file URI has bad offset %s\00", align 1

; Function Attrs: nounwind sspstrong uwtable
define dso_local i32 @file_parse_offset(ptr noundef %filespec, ptr noundef %offsetp, ptr noundef %errp) #0 {
entry:
  %retval = alloca i32, align 4
  %filespec.addr = alloca ptr, align 8
  %offsetp.addr = alloca ptr, align 8
  %errp.addr = alloca ptr, align 8
  %option = alloca ptr, align 8
  %ret = alloca i32, align 4
  store ptr %filespec, ptr %filespec.addr, align 8
  store ptr %offsetp, ptr %offsetp.addr, align 8
  store ptr %errp, ptr %errp.addr, align 8
  %0 = load ptr, ptr %filespec.addr, align 8
  %call = call ptr @strstr(ptr noundef %0, ptr noundef @.str) #4
  store ptr %call, ptr %option, align 8
  %1 = load ptr, ptr %option, align 8
  %tobool = icmp ne ptr %1, null
  br i1 %tobool, label %if.then, label %if.end4

if.then:                                          ; preds = %entry
  %2 = load ptr, ptr %option, align 8
  store i8 0, ptr %2, align 1
  %3 = load ptr, ptr %option, align 8
  %add.ptr = getelementptr i8, ptr %3, i64 8
  store ptr %add.ptr, ptr %option, align 8
  %4 = load ptr, ptr %option, align 8
  %5 = load ptr, ptr %offsetp.addr, align 8
  %call1 = call i32 @qemu_strtosz(ptr noundef %4, ptr noundef null, ptr noundef %5)
  store i32 %call1, ptr %ret, align 4
  %6 = load i32, ptr %ret, align 4
  %tobool2 = icmp ne i32 %6, 0
  br i1 %tobool2, label %if.then3, label %if.end

if.then3:                                         ; preds = %if.then
  %7 = load ptr, ptr %errp.addr, align 8
  %8 = load i32, ptr %ret, align 4
  %sub = sub i32 0, %8
  %9 = load ptr, ptr %option, align 8
  call void (ptr, ptr, i32, ptr, i32, ptr, ...) @error_setg_errno_internal(ptr noundef %7, ptr noundef @.str.1, i32 noundef 32, ptr noundef @__func__.file_parse_offset, i32 noundef %sub, ptr noundef @.str.2, ptr noundef %9)
  store i32 -1, ptr %retval, align 4
  br label %return

if.end:                                           ; preds = %if.then
  br label %if.end4

if.end4:                                          ; preds = %if.end, %entry
  store i32 0, ptr %retval, align 4
  br label %return

return:                                           ; preds = %if.end4, %if.then3
  %10 = load i32, ptr %retval, align 4
  ret i32 %10
}