; Function Attrs: nounwind sspstrong uwtable
define dso_local range(i32 -1, 1) i32 @file_parse_offset(ptr noundef %filespec, ptr noundef %offsetp, ptr noundef %errp) local_unnamed_addr #0 {
entry:
  %call = tail call ptr @strstr(ptr noundef nonnull dereferenceable(1) %filespec, ptr noundef nonnull dereferenceable(1) @.str) #5
  %tobool.not = icmp eq ptr %call, null
  br i1 %tobool.not, label %return, label %if.then

if.then:                                          ; preds = %entry
  store i8 0, ptr %call, align 1
  %add.ptr = getelementptr i8, ptr %call, i64 8
  %call1 = tail call i32 @qemu_strtosz(ptr noundef %add.ptr, ptr noundef null, ptr noundef %offsetp) #6
  %tobool2.not = icmp eq i32 %call1, 0
  br i1 %tobool2.not, label %return, label %if.then3

if.then3:                                         ; preds = %if.then
  %sub = sub i32 0, %call1
  tail call void (ptr, ptr, i32, ptr, i32, ptr, ...) @error_setg_errno_internal(ptr noundef %errp, ptr noundef nonnull @.str.1, i32 noundef 32, ptr noundef nonnull @__func__.file_parse_offset, i32 noundef %sub, ptr noundef nonnull @.str.2, ptr noundef %add.ptr) #6
  br label %return

return:                                           ; preds = %entry, %if.then, %if.then3
  %retval.0 = phi i32 [ -1, %if.then3 ], [ 0, %if.then ], [ 0, %entry ]
  ret i32 %retval.0
}